(dp0
S'Friday'
p1
(lp2
(lp3
S'First Hour'
p4
aS''
p5
aS'Month/Day/Year'
p6
ag5
ag6
ag5
aa(lp7
S'Second Hour'
p8
ag5
ag6
ag5
ag6
ag5
aa(lp9
S'Third Hour'
p10
ag5
ag6
ag5
ag6
ag5
aa(lp11
S'Fourth Hour'
p12
ag5
ag6
ag5
ag6
ag5
aa(lp13
S'Fifth Hour'
p14
ag5
ag6
ag5
ag6
ag5
aasS'Tuesday'
p15
(lp16
(lp17
g4
ag5
ag6
ag5
ag6
ag5
aa(lp18
g8
ag5
ag6
ag5
ag6
ag5
aa(lp19
g10
ag5
ag6
ag5
ag6
ag5
aa(lp20
g12
ag5
ag6
ag5
ag6
ag5
aa(lp21
g14
ag5
ag6
ag5
ag6
ag5
aasS'Thursday'
p22
(lp23
(lp24
g4
ag5
ag6
ag5
ag6
ag5
aa(lp25
g8
ag5
ag6
ag5
ag6
ag5
aa(lp26
g10
ag5
ag6
ag5
ag6
ag5
aa(lp27
g12
ag5
ag6
ag5
ag6
ag5
aa(lp28
g14
ag5
ag6
ag5
ag6
ag5
aasS'Wednesday'
p29
(lp30
(lp31
g4
ag5
ag6
ag5
ag6
ag5
aa(lp32
g8
ag5
ag6
ag5
ag6
ag5
aa(lp33
g10
ag5
ag6
ag5
ag6
ag5
aa(lp34
g12
ag5
ag6
ag5
ag6
ag5
aa(lp35
g14
ag5
ag6
ag5
ag6
ag5
aasS'Monday'
p36
(lp37
(lp38
S'First Hour'
p39
aS'Stuff'
p40
aS'4/5/2018'
p41
ag5
ag6
ag5
aa(lp42
g8
ag5
ag6
ag5
ag6
ag5
aa(lp43
g10
ag5
ag6
ag5
ag6
ag5
aa(lp44
g12
ag5
ag6
ag5
ag6
ag5
aa(lp45
g14
ag5
ag6
ag5
ag6
ag5
aas.