(dp0
S'Tuesday'
p1
(lp2
(lp3
S'First Hour'
p4
aS''
p5
ag5
ag5
ag5
ag5
aa(lp6
S'Second Hour'
p7
ag5
ag5
ag5
ag5
ag5
aa(lp8
S'Third Hour'
p9
ag5
ag5
ag5
ag5
ag5
aa(lp10
S'Fourth Hour'
p11
ag5
ag5
ag5
ag5
ag5
aa(lp12
S'Fifth Hour'
p13
ag5
ag5
ag5
ag5
ag5
aasS'Friday'
p14
(lp15
(lp16
g4
ag5
ag5
ag5
ag5
ag5
aa(lp17
g7
ag5
ag5
ag5
ag5
ag5
aa(lp18
g9
ag5
ag5
ag5
ag5
ag5
aa(lp19
g11
ag5
ag5
ag5
ag5
ag5
aa(lp20
g13
ag5
ag5
ag5
ag5
ag5
aasS'Wednesday'
p21
(lp22
(lp23
g4
ag5
ag5
ag5
ag5
ag5
aa(lp24
g7
ag5
ag5
ag5
ag5
ag5
aa(lp25
g9
ag5
ag5
ag5
ag5
ag5
aa(lp26
g11
ag5
ag5
ag5
ag5
ag5
aa(lp27
g13
ag5
ag5
ag5
ag5
ag5
aasS'Monday'
p28
(lp29
(lp30
S'First Hour'
p31
ag5
ag5
ag5
ag5
ag5
aa(lp32
S'Second Hour'
p33
ag5
ag5
ag5
ag5
ag5
aa(lp34
S'Third Hour'
p35
ag5
ag5
ag5
ag5
ag5
aa(lp36
g11
ag5
ag5
ag5
ag5
ag5
aa(lp37
g13
ag5
ag5
ag5
ag5
ag5
aasS'Thursday'
p38
(lp39
(lp40
g4
ag5
ag5
ag5
ag5
ag5
aa(lp41
g7
ag5
ag5
ag5
ag5
ag5
aa(lp42
g9
ag5
ag5
ag5
ag5
ag5
aa(lp43
g11
ag5
ag5
ag5
ag5
ag5
aa(lp44
g13
ag5
ag5
ag5
ag5
ag5
aas.